; ModuleID = '38/1121.c'
source_filename = "38/1121.c"
target datalayout = "e-m:e-p270:32:32-p271:32:32-p272:64:64-i64:64-f80:128-n8:16:32:64-S128"
target triple = "x86_64-pc-linux-gnu"

@.str = private unnamed_addr constant [3 x i8] c"%d\00", align 1
@.str.1 = private unnamed_addr constant [4 x i8] c"%lf\00", align 1
@.str.2 = private unnamed_addr constant [7 x i8] c"%.5lf\0A\00", align 1

; Function Attrs: noinline nounwind uwtable
define dso_local i32 @main() #0 {
  %1 = alloca i32, align 4
  %2 = alloca i32, align 4
  %3 = alloca i32, align 4
  %4 = alloca i32, align 4
  %5 = alloca [1000 x double], align 16
  %6 = alloca double, align 8
  %7 = alloca double, align 8
  %8 = alloca [1000 x double], align 16
  store i32 0, i32* %1, align 4
  %9 = call i32 (i8*, ...) @__isoc99_scanf(i8* getelementptr inbounds ([3 x i8], [3 x i8]* @.str, i64 0, i64 0), i32* %4)
  br label %10

10:                                               ; preds = %71, %0
  %11 = load i32, i32* %4, align 4
  %12 = add nsw i32 %11, -1
  store i32 %12, i32* %4, align 4
  %13 = icmp ne i32 %11, 0
  br i1 %13, label %14, label %75

14:                                               ; preds = %10
  store double 0.000000e+00, double* %6, align 8
  %15 = call i32 (i8*, ...) @__isoc99_scanf(i8* getelementptr inbounds ([3 x i8], [3 x i8]* @.str, i64 0, i64 0), i32* %2)
  store i32 0, i32* %3, align 4
  br label %16

16:                                               ; preds = %34, %14
  %17 = load i32, i32* %3, align 4
  %18 = load i32, i32* %2, align 4
  %19 = icmp slt i32 %17, %18
  br i1 %19, label %20, label %37

20:                                               ; preds = %16
  %21 = load i32, i32* %3, align 4
  %22 = sext i32 %21 to i64
  %23 = getelementptr inbounds [1000 x double], [1000 x double]* %5, i64 0, i64 %22
  %24 = call i32 (i8*, ...) @__isoc99_scanf(i8* getelementptr inbounds ([4 x i8], [4 x i8]* @.str.1, i64 0, i64 0), double* %23)
  %25 = load i32, i32* %3, align 4
  %26 = sext i32 %25 to i64
  %27 = getelementptr inbounds [1000 x double], [1000 x double]* %5, i64 0, i64 %26
  %28 = load double, double* %27, align 8
  %29 = load i32, i32* %2, align 4
  %30 = sitofp i32 %29 to double
  %31 = fdiv double %28, %30
  %32 = load double, double* %6, align 8
  %33 = fadd double %32, %31
  store double %33, double* %6, align 8
  br label %34

34:                                               ; preds = %20
  %35 = load i32, i32* %3, align 4
  %36 = add nsw i32 %35, 1
  store i32 %36, i32* %3, align 4
  br label %16

37:                                               ; preds = %16
  store double 0.000000e+00, double* %7, align 8
  store i32 0, i32* %3, align 4
  br label %38

38:                                               ; preds = %68, %37
  %39 = load i32, i32* %3, align 4
  %40 = load i32, i32* %2, align 4
  %41 = icmp slt i32 %39, %40
  br i1 %41, label %42, label %71

42:                                               ; preds = %38
  %43 = load i32, i32* %3, align 4
  %44 = sext i32 %43 to i64
  %45 = getelementptr inbounds [1000 x double], [1000 x double]* %5, i64 0, i64 %44
  %46 = load double, double* %45, align 8
  %47 = load double, double* %6, align 8
  %48 = fsub double %46, %47
  %49 = load i32, i32* %3, align 4
  %50 = sext i32 %49 to i64
  %51 = getelementptr inbounds [1000 x double], [1000 x double]* %5, i64 0, i64 %50
  %52 = load double, double* %51, align 8
  %53 = load double, double* %6, align 8
  %54 = fsub double %52, %53
  %55 = fmul double %48, %54
  %56 = load i32, i32* %3, align 4
  %57 = sext i32 %56 to i64
  %58 = getelementptr inbounds [1000 x double], [1000 x double]* %8, i64 0, i64 %57
  store double %55, double* %58, align 8
  %59 = load i32, i32* %3, align 4
  %60 = sext i32 %59 to i64
  %61 = getelementptr inbounds [1000 x double], [1000 x double]* %8, i64 0, i64 %60
  %62 = load double, double* %61, align 8
  %63 = load i32, i32* %2, align 4
  %64 = sitofp i32 %63 to double
  %65 = fdiv double %62, %64
  %66 = load double, double* %7, align 8
  %67 = fadd double %66, %65
  store double %67, double* %7, align 8
  br label %68

68:                                               ; preds = %42
  %69 = load i32, i32* %3, align 4
  %70 = add nsw i32 %69, 1
  store i32 %70, i32* %3, align 4
  br label %38

71:                                               ; preds = %38
  %72 = load double, double* %7, align 8
  %73 = call double @sqrt(double %72) #3
  %74 = call i32 (i8*, ...) @printf(i8* getelementptr inbounds ([7 x i8], [7 x i8]* @.str.2, i64 0, i64 0), double %73)
  br label %10

75:                                               ; preds = %10
  %76 = load i32, i32* %1, align 4
  ret i32 %76
}

declare dso_local i32 @__isoc99_scanf(i8*, ...) #1

declare dso_local i32 @printf(i8*, ...) #1

; Function Attrs: nounwind
declare dso_local double @sqrt(double) #2


!llvm.module.flags = !{!0}
!llvm.ident = !{!1}

!0 = !{i32 1, !"wchar_size", i32 4}
!1 = !{!"clang version 10.0.0-4ubuntu1 "}
